target datalayout = "e-m:e-p270:32:32-p271:32:32-p272:64:64-i64:64-i128:128-f80:128-n8:16:32:64-S128"
target triple = "x86_64-pc-linux-gnu"

%struct.AVFilterContext = type { ptr, ptr, ptr, ptr, ptr, i32, ptr, ptr, i32, ptr, ptr, i32, i32, ptr, ptr, ptr, ptr, i32, ptr, i32, i32 }
%struct.PaletteUseContext = type { ptr, %struct.FFFrameSync, [32768 x %struct.cache_node], [256 x %struct.color_node], [256 x i32], i32, i32, i32, i32, i32, ptr, i32, [64 x i32], i32, ptr, ptr, ptr, i32, i64 }
%struct.FFFrameSync = type { ptr, ptr, i32, %struct.AVRational, i64, ptr, ptr, i32, i32, i8, i8, ptr, i32, i32, i32, i32 }
%struct.AVRational = type { i32, i32 }
%struct.cache_node = type { ptr, i32 }
%struct.color_node = type { %struct.color_info, i8, i32, i32, i32 }
%struct.color_info = type { i32, [3 x i32] }
%struct.AVFilterFormatsConfig = type { ptr, ptr, ptr, ptr, ptr }
%struct.AVFilterLink = type { ptr, ptr, ptr, ptr, i32, i32, i32, i32, %struct.AVRational, i32, i32, i32, %struct.AVChannelLayout, %struct.AVRational, ptr, i32, %struct.AVFilterFormatsConfig, %struct.AVFilterFormatsConfig }
%struct.AVChannelLayout = type { i32, i32, %union.anon.1, ptr }
%union.anon.1 = type { i64 }
%struct.FFFrameSyncIn = type { i32, i32, %struct.AVRational, ptr, ptr, i64, i64, i8, i8, i32, i32 }

; Function Attrs: nounwind uwtable
define internal i32 @config_output(ptr noundef %0) #1 {
  %2 = alloca i32, align 4
  %3 = alloca ptr, align 8
  %4 = alloca i32, align 4
  %5 = alloca ptr, align 8
  %6 = alloca ptr, align 8
  %7 = alloca i32, align 4
  store ptr %0, ptr %3, align 8, !tbaa !44
  call void @llvm.lifetime.start.p0(i64 4, ptr %4) #11
  call void @llvm.lifetime.start.p0(i64 8, ptr %5) #11
  %8 = load ptr, ptr %3, align 8, !tbaa !44
  %9 = getelementptr inbounds nuw %struct.AVFilterLink, ptr %8, i32 0, i32 0
  %10 = load ptr, ptr %9, align 8, !tbaa !55
  store ptr %10, ptr %5, align 8, !tbaa !4
  call void @llvm.lifetime.start.p0(i64 8, ptr %6) #11
  %11 = load ptr, ptr %5, align 8, !tbaa !4
  %12 = getelementptr inbounds nuw %struct.AVFilterContext, ptr %11, i32 0, i32 9
  %13 = load ptr, ptr %12, align 8, !tbaa !9
  store ptr %13, ptr %6, align 8, !tbaa !22
  %14 = load ptr, ptr %6, align 8, !tbaa !22
  %15 = getelementptr inbounds nuw %struct.PaletteUseContext, ptr %14, i32 0, i32 1
  %16 = load ptr, ptr %5, align 8, !tbaa !4
  %17 = call i32 @ff_framesync_init_dualinput(ptr noundef %15, ptr noundef %16)
  store i32 %17, ptr %4, align 4, !tbaa !36
  %18 = load i32, ptr %4, align 4, !tbaa !36
  %19 = icmp slt i32 %18, 0
  br i1 %19, label %20, label %22

20:                                               ; preds = %1
  %21 = load i32, ptr %4, align 4, !tbaa !36
  store i32 %21, ptr %2, align 4
  store i32 1, ptr %7, align 4
  br label %74

22:                                               ; preds = %1
  %23 = load ptr, ptr %6, align 8, !tbaa !22
  %24 = getelementptr inbounds nuw %struct.PaletteUseContext, ptr %23, i32 0, i32 1
  %25 = getelementptr inbounds nuw %struct.FFFrameSync, ptr %24, i32 0, i32 12
  store i32 1, ptr %25, align 8, !tbaa !56
  %26 = load ptr, ptr %6, align 8, !tbaa !22
  %27 = getelementptr inbounds nuw %struct.PaletteUseContext, ptr %26, i32 0, i32 1
  %28 = getelementptr inbounds nuw %struct.FFFrameSync, ptr %27, i32 0, i32 11
  %29 = load ptr, ptr %28, align 8, !tbaa !57
  %30 = getelementptr inbounds %struct.FFFrameSyncIn, ptr %29, i64 1
  %31 = getelementptr inbounds nuw %struct.FFFrameSyncIn, ptr %30, i32 0, i32 1
  store i32 2, ptr %31, align 4, !tbaa !58
  %32 = load ptr, ptr %6, align 8, !tbaa !22
  %33 = getelementptr inbounds nuw %struct.PaletteUseContext, ptr %32, i32 0, i32 1
  %34 = getelementptr inbounds nuw %struct.FFFrameSync, ptr %33, i32 0, i32 11
  %35 = load ptr, ptr %34, align 8, !tbaa !57
  %36 = getelementptr inbounds %struct.FFFrameSyncIn, ptr %35, i64 1
  %37 = getelementptr inbounds nuw %struct.FFFrameSyncIn, ptr %36, i32 0, i32 0
  store i32 2, ptr %37, align 8, !tbaa !60
  %38 = load ptr, ptr %6, align 8, !tbaa !22
  %39 = getelementptr inbounds nuw %struct.PaletteUseContext, ptr %38, i32 0, i32 1
  %40 = getelementptr inbounds nuw %struct.FFFrameSync, ptr %39, i32 0, i32 5
  store ptr @load_apply_palette, ptr %40, align 8, !tbaa !61
  %41 = load ptr, ptr %5, align 8, !tbaa !4
  %42 = getelementptr inbounds nuw %struct.AVFilterContext, ptr %41, i32 0, i32 4
  %43 = load ptr, ptr %42, align 8, !tbaa !62
  %44 = getelementptr inbounds ptr, ptr %43, i64 0
  %45 = load ptr, ptr %44, align 8, !tbaa !44
  %46 = getelementptr inbounds nuw %struct.AVFilterLink, ptr %45, i32 0, i32 6
  %47 = load i32, ptr %46, align 8, !tbaa !53
  %48 = load ptr, ptr %3, align 8, !tbaa !44
  %49 = getelementptr inbounds nuw %struct.AVFilterLink, ptr %48, i32 0, i32 6
  store i32 %47, ptr %49, align 8, !tbaa !53
  %50 = load ptr, ptr %5, align 8, !tbaa !4
  %51 = getelementptr inbounds nuw %struct.AVFilterContext, ptr %50, i32 0, i32 4
  %52 = load ptr, ptr %51, align 8, !tbaa !62
  %53 = getelementptr inbounds ptr, ptr %52, i64 0
  %54 = load ptr, ptr %53, align 8, !tbaa !44
  %55 = getelementptr inbounds nuw %struct.AVFilterLink, ptr %54, i32 0, i32 7
  %56 = load i32, ptr %55, align 4, !tbaa !54
  %57 = load ptr, ptr %3, align 8, !tbaa !44
  %58 = getelementptr inbounds nuw %struct.AVFilterLink, ptr %57, i32 0, i32 7
  store i32 %56, ptr %58, align 4, !tbaa !54
  %59 = load ptr, ptr %3, align 8, !tbaa !44
  %60 = getelementptr inbounds nuw %struct.AVFilterLink, ptr %59, i32 0, i32 13
  %61 = load ptr, ptr %5, align 8, !tbaa !4
  %62 = getelementptr inbounds nuw %struct.AVFilterContext, ptr %61, i32 0, i32 4
  %63 = load ptr, ptr %62, align 8, !tbaa !62
  %64 = getelementptr inbounds ptr, ptr %63, i64 0
  %65 = load ptr, ptr %64, align 8, !tbaa !44
  %66 = getelementptr inbounds nuw %struct.AVFilterLink, ptr %65, i32 0, i32 13
  call void @llvm.memcpy.p0.p0.i64(ptr align 8 %60, ptr align 8 %66, i64 8, i1 false), !tbaa.struct !63
  %67 = load ptr, ptr %6, align 8, !tbaa !22
  %68 = getelementptr inbounds nuw %struct.PaletteUseContext, ptr %67, i32 0, i32 1
  %69 = call i32 @ff_framesync_configure(ptr noundef %68)
  store i32 %69, ptr %4, align 4, !tbaa !36
  %70 = icmp slt i32 %69, 0
  br i1 %70, label %71, label %73

71:                                               ; preds = %22
  %72 = load i32, ptr %4, align 4, !tbaa !36
  store i32 %72, ptr %2, align 4
  store i32 1, ptr %7, align 4
  br label %74

73:                                               ; preds = %22
  store i32 0, ptr %2, align 4
  store i32 1, ptr %7, align 4
  br label %74

74:                                               ; preds = %73, %71, %20
  call void @llvm.lifetime.end.p0(i64 8, ptr %6) #11
  call void @llvm.lifetime.end.p0(i64 8, ptr %5) #11
  call void @llvm.lifetime.end.p0(i64 4, ptr %4) #11
  %75 = load i32, ptr %2, align 4
  ret i32 %75
}