; Function Attrs: nounwind uwtable
define internal range(i32 -2147483648, 1) i32 @config_output(ptr noundef captures(none) %0) #1 {
  %2 = load ptr, ptr %0, align 8, !tbaa !48
  %3 = getelementptr inbounds nuw i8, ptr %2, i64 72
  %4 = load ptr, ptr %3, align 8, !tbaa !4
  %5 = getelementptr inbounds nuw i8, ptr %4, i64 8
  %6 = tail call i32 @ff_framesync_init_dualinput(ptr noundef nonnull %5, ptr noundef %2) #13
  %7 = icmp slt i32 %6, 0
  br i1 %7, label %28, label %8

8:                                                ; preds = %1
  %9 = getelementptr inbounds nuw i8, ptr %4, i64 88
  store i32 1, ptr %9, align 8, !tbaa !49
  %10 = getelementptr inbounds nuw i8, ptr %4, i64 80
  %11 = load ptr, ptr %10, align 8, !tbaa !50
  %12 = getelementptr inbounds nuw i8, ptr %11, i64 68
  store i32 2, ptr %12, align 4, !tbaa !51
  %13 = getelementptr inbounds nuw i8, ptr %11, i64 64
  store i32 2, ptr %13, align 8, !tbaa !53
  %14 = getelementptr inbounds nuw i8, ptr %4, i64 48
  store ptr @load_apply_palette, ptr %14, align 8, !tbaa !54
  %15 = getelementptr inbounds nuw i8, ptr %2, i64 32
  %16 = load ptr, ptr %15, align 8, !tbaa !55
  %17 = load ptr, ptr %16, align 8, !tbaa !56
  %18 = getelementptr inbounds nuw i8, ptr %17, i64 40
  %19 = load i32, ptr %18, align 8, !tbaa !39
  %20 = getelementptr inbounds nuw i8, ptr %0, i64 40
  store i32 %19, ptr %20, align 8, !tbaa !39
  %21 = getelementptr inbounds nuw i8, ptr %17, i64 44
  %22 = load i32, ptr %21, align 4, !tbaa !46
  %23 = getelementptr inbounds nuw i8, ptr %0, i64 44
  store i32 %22, ptr %23, align 4, !tbaa !46
  %24 = getelementptr inbounds nuw i8, ptr %0, i64 96
  %25 = getelementptr inbounds nuw i8, ptr %17, i64 96
  %26 = load i64, ptr %25, align 8
  store i64 %26, ptr %24, align 8
  %27 = tail call i32 @ff_framesync_configure(ptr noundef nonnull %5) #13
  %. = tail call i32 @llvm.smin.i32(i32 %27, i32 0)
  br label %28

28:                                               ; preds = %8, %1
  %.0 = phi i32 [ %6, %1 ], [ %., %8 ]
  ret i32 %.0
}